target datalayout = "e-m:e-p270:32:32-p271:32:32-p272:64:64-i64:64-i128:128-f80:128-n8:16:32:64-S128"
target triple = "x86_64-pc-linux-gnu"

; Function Attrs: nounwind uwtable
define dso_local signext i16 @matrix_sum(i32 noundef %0, ptr noundef %1, i16 noundef signext %2) #0 {
  %4 = alloca i32, align 4
  %5 = alloca ptr, align 8
  %6 = alloca i16, align 2
  %7 = alloca i32, align 4
  %8 = alloca i32, align 4
  %9 = alloca i32, align 4
  %10 = alloca i16, align 2
  %11 = alloca i32, align 4
  %12 = alloca i32, align 4
  store i32 %0, ptr %4, align 4, !tbaa !16
  store ptr %1, ptr %5, align 8, !tbaa !18
  store i16 %2, ptr %6, align 2, !tbaa !9
  call void @llvm.lifetime.start.p0(i64 4, ptr %7) #3
  store i32 0, ptr %7, align 4, !tbaa !16
  call void @llvm.lifetime.start.p0(i64 4, ptr %8) #3
  store i32 0, ptr %8, align 4, !tbaa !16
  call void @llvm.lifetime.start.p0(i64 4, ptr %9) #3
  store i32 0, ptr %9, align 4, !tbaa !16
  call void @llvm.lifetime.start.p0(i64 2, ptr %10) #3
  store i16 0, ptr %10, align 2, !tbaa !9
  call void @llvm.lifetime.start.p0(i64 4, ptr %11) #3
  call void @llvm.lifetime.start.p0(i64 4, ptr %12) #3
  store i32 0, ptr %11, align 4, !tbaa !16
  br label %13

13:                                               ; preds = %59, %3
  %14 = load i32, ptr %11, align 4, !tbaa !16
  %15 = load i32, ptr %4, align 4, !tbaa !16
  %16 = icmp ult i32 %14, %15
  br i1 %16, label %17, label %62

17:                                               ; preds = %13
  store i32 0, ptr %12, align 4, !tbaa !16
  br label %18

18:                                               ; preds = %55, %17
  %19 = load i32, ptr %12, align 4, !tbaa !16
  %20 = load i32, ptr %4, align 4, !tbaa !16
  %21 = icmp ult i32 %19, %20
  br i1 %21, label %22, label %58

22:                                               ; preds = %18
  %23 = load ptr, ptr %5, align 8, !tbaa !18
  %24 = load i32, ptr %11, align 4, !tbaa !16
  %25 = load i32, ptr %4, align 4, !tbaa !16
  %26 = mul i32 %24, %25
  %27 = load i32, ptr %12, align 4, !tbaa !16
  %28 = add i32 %26, %27
  %29 = zext i32 %28 to i64
  %30 = getelementptr inbounds nuw i32, ptr %23, i64 %29
  %31 = load i32, ptr %30, align 4, !tbaa !16
  store i32 %31, ptr %9, align 4, !tbaa !16
  %32 = load i32, ptr %9, align 4, !tbaa !16
  %33 = load i32, ptr %7, align 4, !tbaa !16
  %34 = add nsw i32 %33, %32
  store i32 %34, ptr %7, align 4, !tbaa !16
  %35 = load i32, ptr %7, align 4, !tbaa !16
  %36 = load i16, ptr %6, align 2, !tbaa !9
  %37 = sext i16 %36 to i32
  %38 = icmp sgt i32 %35, %37
  br i1 %38, label %39, label %44

39:                                               ; preds = %22
  %40 = load i16, ptr %10, align 2, !tbaa !9
  %41 = sext i16 %40 to i32
  %42 = add nsw i32 %41, 10
  %43 = trunc i32 %42 to i16
  store i16 %43, ptr %10, align 2, !tbaa !9
  store i32 0, ptr %7, align 4, !tbaa !16
  br label %53

44:                                               ; preds = %22
  %45 = load i32, ptr %9, align 4, !tbaa !16
  %46 = load i32, ptr %8, align 4, !tbaa !16
  %47 = icmp sgt i32 %45, %46
  %48 = select i1 %47, i32 1, i32 0
  %49 = load i16, ptr %10, align 2, !tbaa !9
  %50 = sext i16 %49 to i32
  %51 = add nsw i32 %50, %48
  %52 = trunc i32 %51 to i16
  store i16 %52, ptr %10, align 2, !tbaa !9
  br label %53

53:                                               ; preds = %44, %39
  %54 = load i32, ptr %9, align 4, !tbaa !16
  store i32 %54, ptr %8, align 4, !tbaa !16
  br label %55

55:                                               ; preds = %53
  %56 = load i32, ptr %12, align 4, !tbaa !16
  %57 = add i32 %56, 1
  store i32 %57, ptr %12, align 4, !tbaa !16
  br label %18, !llvm.loop !27

58:                                               ; preds = %18
  br label %59

59:                                               ; preds = %58
  %60 = load i32, ptr %11, align 4, !tbaa !16
  %61 = add i32 %60, 1
  store i32 %61, ptr %11, align 4, !tbaa !16
  br label %13, !llvm.loop !28

62:                                               ; preds = %13
  %63 = load i16, ptr %10, align 2, !tbaa !9
  call void @llvm.lifetime.end.p0(i64 4, ptr %12) #3
  call void @llvm.lifetime.end.p0(i64 4, ptr %11) #3
  call void @llvm.lifetime.end.p0(i64 2, ptr %10) #3
  call void @llvm.lifetime.end.p0(i64 4, ptr %9) #3
  call void @llvm.lifetime.end.p0(i64 4, ptr %8) #3
  call void @llvm.lifetime.end.p0(i64 4, ptr %7) #3
  ret i16 %63
}