; Function Attrs: nofree norecurse nosync nounwind memory(argmem: read) uwtable
define dso_local signext i16 @matrix_sum(i32 noundef %0, ptr noundef readonly captures(none) %1, i16 noundef signext %2) local_unnamed_addr #3 {
  %.not = icmp eq i32 %0, 0
  br i1 %.not, label %._crit_edge, label %.preheader.lr.ph

.preheader.lr.ph:                                 ; preds = %3
  %4 = sext i16 %2 to i32
  %wide.trip.count = zext i32 %0 to i64
  br label %.preheader

.preheader:                                       ; preds = %.preheader.lr.ph, %16
  %.01935 = phi i32 [ 0, %.preheader.lr.ph ], [ %17, %16 ]
  %.02034 = phi i16 [ 0, %.preheader.lr.ph ], [ %.2, %16 ]
  %.02133 = phi i32 [ 0, %.preheader.lr.ph ], [ %11, %16 ]
  %.02332 = phi i32 [ 0, %.preheader.lr.ph ], [ %.225, %16 ]
  %5 = mul i32 %.01935, %0
  br label %6

6:                                                ; preds = %.preheader, %6
  %indvars.iv = phi i64 [ 0, %.preheader ], [ %indvars.iv.next, %6 ]
  %.130 = phi i16 [ %.02034, %.preheader ], [ %.2, %6 ]
  %.12229 = phi i32 [ %.02133, %.preheader ], [ %11, %6 ]
  %.12428 = phi i32 [ %.02332, %.preheader ], [ %.225, %6 ]
  %7 = trunc nuw i64 %indvars.iv to i32
  %8 = add i32 %5, %7
  %9 = zext i32 %8 to i64
  %10 = getelementptr inbounds nuw i32, ptr %1, i64 %9
  %11 = load i32, ptr %10, align 4, !tbaa !20
  %12 = add nsw i32 %11, %.12428
  %13 = icmp sgt i32 %12, %4
  %14 = icmp sgt i32 %11, %.12229
  %15 = zext i1 %14 to i16
  %.225 = select i1 %13, i32 0, i32 %12
  %.2.v = select i1 %13, i16 10, i16 %15
  %.2 = add i16 %.2.v, %.130
  %indvars.iv.next = add nuw nsw i64 %indvars.iv, 1
  %exitcond.not = icmp eq i64 %indvars.iv.next, %wide.trip.count
  br i1 %exitcond.not, label %16, label %6, !llvm.loop !23

16:                                               ; preds = %6
  %17 = add nuw i32 %.01935, 1
  %exitcond36.not = icmp eq i32 %17, %0
  br i1 %exitcond36.not, label %._crit_edge, label %.preheader, !llvm.loop !24

._crit_edge:                                      ; preds = %16, %3
  %.020.lcssa = phi i16 [ 0, %3 ], [ %.2, %16 ]
  ret i16 %.020.lcssa
}